; Function Attrs: nounwind uwtable
define ptr @l_Std_Time_Minute_Offset_ofNat(ptr noundef %0) local_unnamed_addr #0 {
  %2 = ptrtoint ptr %0 to i64
  %3 = and i64 %2, 1
  %.not.i = icmp eq i64 %3, 0
  %4 = icmp ult ptr %0, inttoptr (i64 4294967296 to ptr)
  %or.cond.i = or i1 %4, %.not.i
  br i1 %or.cond.i, label %lean_nat_to_int.exit, label %5

5:                                                ; preds = %1
  %6 = lshr i64 %2, 1
  %7 = tail call ptr @lean_big_size_t_to_int(i64 noundef %6) #4
  br label %lean_nat_to_int.exit

lean_nat_to_int.exit:                             ; preds = %1, %5
  %.1.i = phi ptr [ %7, %5 ], [ %0, %1 ]
  ret ptr %.1.i
}